; ModuleID = '60/273.c'
source_filename = "60/273.c"
target datalayout = "e-m:e-p270:32:32-p271:32:32-p272:64:64-i64:64-f80:128-n8:16:32:64-S128"
target triple = "x86_64-pc-linux-gnu"

@.str = private unnamed_addr constant [3 x i8] c"%d\00", align 1
@.str.1 = private unnamed_addr constant [7 x i8] c"empty\0A\00", align 1
@.str.2 = private unnamed_addr constant [7 x i8] c"%d %d\0A\00", align 1

; Function Attrs: noinline nounwind uwtable
define dso_local i32 @main() #0 {
  %1 = alloca i32, align 4
  %2 = alloca i32, align 4
  %3 = alloca i32, align 4
  %4 = alloca i32, align 4
  %5 = alloca i32, align 4
  store i32 0, i32* %1, align 4
  %6 = call i32 (i8*, ...) @__isoc99_scanf(i8* getelementptr inbounds ([3 x i8], [3 x i8]* @.str, i64 0, i64 0), i32* %2)
  %7 = load i32, i32* %2, align 4
  %8 = icmp sle i32 %7, 4
  br i1 %8, label %9, label %11

9:                                                ; preds = %0
  %10 = call i32 (i8*, ...) @printf(i8* getelementptr inbounds ([7 x i8], [7 x i8]* @.str.1, i64 0, i64 0))
  br label %11

11:                                               ; preds = %9, %0
  store i32 4, i32* %3, align 4
  br label %12

12:                                               ; preds = %66, %11
  %13 = load i32, i32* %3, align 4
  %14 = load i32, i32* %2, align 4
  %15 = icmp slt i32 %13, %14
  br i1 %15, label %16, label %69

16:                                               ; preds = %12
  store i32 0, i32* %5, align 4
  store i32 3, i32* %4, align 4
  br label %17

17:                                               ; preds = %33, %16
  %18 = load i32, i32* %4, align 4
  %19 = load i32, i32* %3, align 4
  %20 = sub nsw i32 %19, 1
  %21 = sitofp i32 %20 to double
  %22 = call double @sqrt(double %21) #3
  %23 = fptosi double %22 to i32
  %24 = icmp sle i32 %18, %23
  br i1 %24, label %25, label %36

25:                                               ; preds = %17
  %26 = load i32, i32* %3, align 4
  %27 = sub nsw i32 %26, 1
  %28 = load i32, i32* %4, align 4
  %29 = srem i32 %27, %28
  %30 = icmp eq i32 %29, 0
  br i1 %30, label %31, label %32

31:                                               ; preds = %25
  store i32 1, i32* %5, align 4
  br label %36

32:                                               ; preds = %25
  br label %33

33:                                               ; preds = %32
  %34 = load i32, i32* %4, align 4
  %35 = add nsw i32 %34, 2
  store i32 %35, i32* %4, align 4
  br label %17

36:                                               ; preds = %31, %17
  store i32 3, i32* %4, align 4
  br label %37

37:                                               ; preds = %53, %36
  %38 = load i32, i32* %4, align 4
  %39 = load i32, i32* %3, align 4
  %40 = add nsw i32 %39, 1
  %41 = sitofp i32 %40 to double
  %42 = call double @sqrt(double %41) #3
  %43 = fptosi double %42 to i32
  %44 = icmp sle i32 %38, %43
  br i1 %44, label %45, label %56

45:                                               ; preds = %37
  %46 = load i32, i32* %3, align 4
  %47 = add nsw i32 %46, 1
  %48 = load i32, i32* %4, align 4
  %49 = srem i32 %47, %48
  %50 = icmp eq i32 %49, 0
  br i1 %50, label %51, label %52

51:                                               ; preds = %45
  store i32 1, i32* %5, align 4
  br label %56

52:                                               ; preds = %45
  br label %53

53:                                               ; preds = %52
  %54 = load i32, i32* %4, align 4
  %55 = add nsw i32 %54, 2
  store i32 %55, i32* %4, align 4
  br label %37

56:                                               ; preds = %51, %37
  %57 = load i32, i32* %5, align 4
  %58 = icmp eq i32 %57, 0
  br i1 %58, label %59, label %65

59:                                               ; preds = %56
  %60 = load i32, i32* %3, align 4
  %61 = sub nsw i32 %60, 1
  %62 = load i32, i32* %3, align 4
  %63 = add nsw i32 %62, 1
  %64 = call i32 (i8*, ...) @printf(i8* getelementptr inbounds ([7 x i8], [7 x i8]* @.str.2, i64 0, i64 0), i32 %61, i32 %63)
  br label %65

65:                                               ; preds = %59, %56
  br label %66

66:                                               ; preds = %65
  %67 = load i32, i32* %3, align 4
  %68 = add nsw i32 %67, 2
  store i32 %68, i32* %3, align 4
  br label %12

69:                                               ; preds = %12
  ret i32 0
}

declare dso_local i32 @__isoc99_scanf(i8*, ...) #1

declare dso_local i32 @printf(i8*, ...) #1

; Function Attrs: nounwind
declare dso_local double @sqrt(double) #2


!llvm.module.flags = !{!0}
!llvm.ident = !{!1}

!0 = !{i32 1, !"wchar_size", i32 4}
!1 = !{!"clang version 10.0.0-4ubuntu1 "}
