; ModuleID = 'source-C-CXX/59/273.c'
source_filename = "source-C-CXX/59/273.c"
target datalayout = "e-m:e-p270:32:32-p271:32:32-p272:64:64-i64:64-f80:128-n8:16:32:64-S128"
target triple = "x86_64-pc-linux-gnu"

@.str = private unnamed_addr constant [3 x i8] c"%d\00", align 1
@.str.2 = private unnamed_addr constant [7 x i8] c"%d %d\0A\00", align 1
@str = private unnamed_addr constant [6 x i8] c"empty\00", align 1

; Function Attrs: nofree nounwind sspstrong uwtable
define dso_local i32 @main() local_unnamed_addr #0 {
  %1 = alloca i32, align 4
  %2 = bitcast i32* %1 to i8*
  call void @llvm.lifetime.start.p0i8(i64 4, i8* nonnull %2) #5
  %3 = call i32 (i8*, ...) @__isoc99_scanf(i8* getelementptr inbounds ([3 x i8], [3 x i8]* @.str, i64 0, i64 0), i32* nonnull %1)
  %4 = load i32, i32* %1, align 4, !tbaa !5
  %5 = icmp slt i32 %4, 5
  br i1 %5, label %6, label %10

6:                                                ; preds = %0
  %7 = call i32 @puts(i8* nonnull dereferenceable(1) getelementptr inbounds ([6 x i8], [6 x i8]* @str, i64 0, i64 0))
  %8 = load i32, i32* %1, align 4, !tbaa !5
  %9 = icmp sgt i32 %8, 4
  br i1 %9, label %10, label %52

10:                                               ; preds = %0, %6
  br label %11

11:                                               ; preds = %10, %48
  %12 = phi i32 [ %49, %48 ], [ 4, %10 ]
  %13 = add nsw i32 %12, -1
  %14 = sitofp i32 %13 to double
  %15 = call double @sqrt(double %14) #5
  %16 = fptosi double %15 to i32
  %17 = icmp slt i32 %16, 3
  br i1 %17, label %29, label %22

18:                                               ; preds = %22
  %19 = call double @sqrt(double %14) #5
  %20 = fptosi double %19 to i32
  %21 = icmp sgt i32 %26, %20
  br i1 %21, label %27, label %22, !llvm.loop !9

22:                                               ; preds = %11, %18
  %23 = phi i32 [ %26, %18 ], [ 3, %11 ]
  %24 = urem i32 %13, %23
  %25 = icmp eq i32 %24, 0
  %26 = add nuw nsw i32 %23, 2
  br i1 %25, label %27, label %18

27:                                               ; preds = %22, %18
  %28 = xor i1 %25, true
  br label %29

29:                                               ; preds = %27, %11
  %30 = phi i1 [ true, %11 ], [ %28, %27 ]
  %31 = or i32 %12, 1
  %32 = sitofp i32 %31 to double
  %33 = call double @sqrt(double %32) #5
  %34 = fptosi double %33 to i32
  %35 = icmp slt i32 %34, 3
  br i1 %35, label %45, label %40

36:                                               ; preds = %40
  %37 = call double @sqrt(double %32) #5
  %38 = fptosi double %37 to i32
  %39 = icmp sgt i32 %44, %38
  br i1 %39, label %45, label %40, !llvm.loop !11

40:                                               ; preds = %29, %36
  %41 = phi i32 [ %44, %36 ], [ 3, %29 ]
  %42 = urem i32 %31, %41
  %43 = icmp eq i32 %42, 0
  %44 = add nuw nsw i32 %41, 2
  br i1 %43, label %48, label %36

45:                                               ; preds = %36, %29
  br i1 %30, label %46, label %48

46:                                               ; preds = %45
  %47 = call i32 (i8*, ...) @printf(i8* nonnull dereferenceable(1) getelementptr inbounds ([7 x i8], [7 x i8]* @.str.2, i64 0, i64 0), i32 %13, i32 %31)
  br label %48

48:                                               ; preds = %40, %45, %46
  %49 = add nuw nsw i32 %12, 2
  %50 = load i32, i32* %1, align 4, !tbaa !5
  %51 = icmp slt i32 %49, %50
  br i1 %51, label %11, label %52, !llvm.loop !12

52:                                               ; preds = %48, %6
  call void @llvm.lifetime.end.p0i8(i64 4, i8* nonnull %2) #5
  ret i32 0
}

; Function Attrs: argmemonly mustprogress nofree nosync nounwind willreturn
declare void @llvm.lifetime.start.p0i8(i64 immarg, i8* nocapture) #1

; Function Attrs: nofree nounwind
declare noundef i32 @__isoc99_scanf(i8* nocapture noundef readonly, ...) local_unnamed_addr #2

; Function Attrs: nofree nounwind
declare noundef i32 @printf(i8* nocapture noundef readonly, ...) local_unnamed_addr #2

; Function Attrs: mustprogress nofree nounwind willreturn
declare double @sqrt(double) local_unnamed_addr #3

; Function Attrs: argmemonly mustprogress nofree nosync nounwind willreturn
declare void @llvm.lifetime.end.p0i8(i64 immarg, i8* nocapture) #1

; Function Attrs: nofree nounwind
declare noundef i32 @puts(i8* nocapture noundef readonly) local_unnamed_addr #4


!llvm.module.flags = !{!0, !1, !2, !3}
!llvm.ident = !{!4}

!0 = !{i32 1, !"wchar_size", i32 4}
!1 = !{i32 7, !"PIC Level", i32 2}
!2 = !{i32 7, !"PIE Level", i32 2}
!3 = !{i32 7, !"uwtable", i32 1}
!4 = !{!"clang version 13.0.0"}
!5 = !{!6, !6, i64 0}
!6 = !{!"int", !7, i64 0}
!7 = !{!"omnipotent char", !8, i64 0}
!8 = !{!"Simple C/C++ TBAA"}
!9 = distinct !{!9, !10}
!10 = !{!"llvm.loop.mustprogress"}
!11 = distinct !{!11, !10}
!12 = distinct !{!12, !10}
